; Function Attrs: mustprogress nofree norecurse nosync nounwind willreturn memory(read, argmem: readwrite, inaccessiblemem: none) uwtable
define dso_local { i64, i64 } @_ZNK4llvm16X86FrameLowering24getFrameIndexReferenceSPERKNS_15MachineFunctionEiRNS_8RegisterEi(ptr nocapture noundef nonnull readonly align 8 dereferenceable(60) %0, ptr nocapture noundef nonnull readonly align 8 dereferenceable(1041) %1, i32 noundef %2, ptr nocapture noundef nonnull writeonly align 4 dereferenceable(4) %3, i32 noundef %4) local_unnamed_addr #7 align 2 {
  %6 = getelementptr inbounds nuw i8, ptr %1, i64 48
  %7 = load ptr, ptr %6, align 8
  %8 = getelementptr inbounds nuw i8, ptr %0, i64 40
  %9 = load ptr, ptr %8, align 8
  %10 = getelementptr inbounds nuw i8, ptr %9, i64 316
  %11 = load i32, ptr %10, align 4
  store i32 %11, ptr %3, align 4
  %12 = getelementptr inbounds nuw i8, ptr %7, i64 8
  %13 = getelementptr inbounds nuw i8, ptr %7, i64 32
  %14 = load i32, ptr %13, align 8
  %15 = add i32 %14, %2
  %16 = zext i32 %15 to i64
  %17 = load ptr, ptr %12, align 8
  %18 = getelementptr inbounds %"struct.llvm::MachineFrameInfo::StackObject", ptr %17, i64 %16
  %19 = load i64, ptr %18, align 8
  %20 = getelementptr inbounds nuw i8, ptr %0, i64 16
  %21 = load i32, ptr %20, align 8
  %22 = sext i32 %21 to i64
  %23 = sext i32 %4 to i64
  %24 = add i64 %19, %23
  %25 = sub i64 %24, %22
  %.fca.0.insert.i = insertvalue { i64, i64 } poison, i64 %25, 0
  %.fca.1.insert.i = insertvalue { i64, i64 } %.fca.0.insert.i, i64 0, 1
  ret { i64, i64 } %.fca.1.insert.i
}